# SymbolsHelper-Confirmed: 6.6.1 amd64
libQt6Bodymovin.so.6 libqt6bodymovin6 #MINVER#
* Build-Depends-Package: qt6-qtlottie-dev
 Qt_6@Qt_6 6.6.1
 Qt_6_PRIVATE_API@Qt_6_PRIVATE_API 6.6.1
 _ZN10BMRepeater16updatePropertiesEi@Qt_6 6.6.1
 _ZN10BMRepeater9constructERK11QJsonObjectRK14QVersionNumber@Qt_6 6.6.1
 _ZN10BMRepeaterC1ERK11QJsonObjectRK14QVersionNumberP6BMBase@Qt_6 6.6.1
 _ZN10BMRepeaterC2ERK11QJsonObjectRK14QVersionNumberP6BMBase@Qt_6 6.6.1
 _ZN10BMTrimPath16updatePropertiesEi@Qt_6 6.6.1
 _ZN10BMTrimPath9applyTrimERKS_@Qt_6 6.6.1
 _ZN10BMTrimPath9constructERK11QJsonObjectRK14QVersionNumber@Qt_6 6.6.1
 _ZN10BMTrimPathC1ERK11QJsonObjectRK14QVersionNumberP6BMBase@Qt_6 6.6.1
 _ZN10BMTrimPathC1ERKS_@Qt_6 6.6.1
 _ZN10BMTrimPathC1Ev@Qt_6 6.6.1
 _ZN10BMTrimPathC2ERK11QJsonObjectRK14QVersionNumberP6BMBase@Qt_6 6.6.1
 _ZN10BMTrimPathC2ERKS_@Qt_6 6.6.1
 _ZN10BMTrimPathC2Ev@Qt_6 6.6.1
 _ZN12BMFillEffect16updatePropertiesEi@Qt_6 6.6.1
 _ZN12BMFillEffect9constructERK11QJsonObjectRK14QVersionNumber@Qt_6 6.6.1
 _ZN12BMFillEffectC1ERKS_@Qt_6 6.6.1
 _ZN12BMFillEffectC2ERKS_@Qt_6 6.6.1
 _ZN12BMImageLayer16updatePropertiesEi@Qt_6 6.6.1
 _ZN12BMImageLayerC1ERK11QJsonObjectRK14QVersionNumber@Qt_6 6.6.1
 _ZN12BMImageLayerC1ERKS_@Qt_6 6.6.1
 _ZN12BMImageLayerC2ERK11QJsonObjectRK14QVersionNumber@Qt_6 6.6.1
 _ZN12BMImageLayerC2ERKS_@Qt_6 6.6.1
 _ZN12BMImageLayerD0Ev@Qt_6 6.6.1
 _ZN12BMImageLayerD1Ev@Qt_6 6.6.1
 _ZN12BMImageLayerD2Ev@Qt_6 6.6.1
 _ZN12BMShapeLayer16updatePropertiesEi@Qt_6 6.6.1
 _ZN12BMShapeLayerC1ERK11QJsonObjectRK14QVersionNumber@Qt_6 6.6.1
 _ZN12BMShapeLayerC1ERKS_@Qt_6 6.6.1
 _ZN12BMShapeLayerC2ERK11QJsonObjectRK14QVersionNumber@Qt_6 6.6.1
 _ZN12BMShapeLayerC2ERKS_@Qt_6 6.6.1
 _ZN12BMShapeLayerD0Ev@Qt_6 6.6.1
 _ZN12BMShapeLayerD1Ev@Qt_6 6.6.1
 _ZN12BMShapeLayerD2Ev@Qt_6 6.6.1
 _ZN13BMPathTrimmer16updatePropertiesEi@Qt_6 6.6.1
 _ZN13BMPathTrimmer7addTrimEP10BMTrimPath@Qt_6 6.6.1
 _ZN13BMPathTrimmer9applyTrimEP7BMShape@Qt_6 6.6.1
 _ZN13BMPathTrimmerC1EP6BMBase@Qt_6 6.6.1
 _ZN13BMPathTrimmerC2EP6BMBase@Qt_6 6.6.1
 _ZN14LottieRenderer16setTrimmingStateENS_13TrimmingStateE@Qt_6 6.6.1
 _ZN14LottieRenderer17saveTrimmingStateEv@Qt_6 6.6.1
 _ZN14LottieRenderer20restoreTrimmingStateEv@Qt_6 6.6.1
 _ZN15BMFreeFormShape10buildShapeERK11QJsonObject@Qt_6 6.6.1
 _ZN15BMFreeFormShape10buildShapeEi@Qt_6 6.6.1
 _ZN15BMFreeFormShape14createKeyframeE10QJsonArrayS0_i11QJsonObjectS1_@Qt_6 6.6.1
 _ZN15BMFreeFormShape16finalizeVerticesEv@Qt_6 6.6.1
 _ZN15BMFreeFormShape16updatePropertiesEi@Qt_6 6.6.1
 _ZN15BMFreeFormShape18parseEasedVerticesERK11QJsonObjecti@Qt_6 6.6.1
 _ZN15BMFreeFormShape19parseShapeKeyframesER11QJsonObject@Qt_6 6.6.1
 _ZN15BMFreeFormShape9constructERK11QJsonObjectRK14QVersionNumber@Qt_6 6.6.1
 _ZN15BMFreeFormShapeC1ERK11QJsonObjectRK14QVersionNumberP6BMBase@Qt_6 6.6.1
 _ZN15BMFreeFormShapeC1ERKS_@Qt_6 6.6.1
 _ZN15BMFreeFormShapeC1Ev@Qt_6 6.6.1
 _ZN15BMFreeFormShapeC2ERK11QJsonObjectRK14QVersionNumberP6BMBase@Qt_6 6.6.1
 _ZN15BMFreeFormShapeC2ERKS_@Qt_6 6.6.1
 _ZN15BMFreeFormShapeC2Ev@Qt_6 6.6.1
 _ZN16BMBasicTransform16updatePropertiesEi@Qt_6 6.6.1
 _ZN16BMBasicTransform9constructERK11QJsonObjectRK14QVersionNumber@Qt_6 6.6.1
 _ZN16BMBasicTransformC1ERK11QJsonObjectRK14QVersionNumberP6BMBase@Qt_6 6.6.1
 _ZN16BMBasicTransformC1ERKS_@Qt_6 6.6.1
 _ZN16BMBasicTransformC2ERK11QJsonObjectRK14QVersionNumberP6BMBase@Qt_6 6.6.1
 _ZN16BMBasicTransformC2ERKS_@Qt_6 6.6.1
 _ZN16BMShapeTransform16updatePropertiesEi@Qt_6 6.6.1
 _ZN16BMShapeTransform9constructERK11QJsonObjectRK14QVersionNumber@Qt_6 6.6.1
 _ZN16BMShapeTransformC1ERK11QJsonObjectRK14QVersionNumberP6BMBase@Qt_6 6.6.1
 _ZN16BMShapeTransformC1ERKS_@Qt_6 6.6.1
 _ZN16BMShapeTransformC2ERK11QJsonObjectRK14QVersionNumberP6BMBase@Qt_6 6.6.1
 _ZN16BMShapeTransformC2ERKS_@Qt_6 6.6.1
 _ZN19BMRepeaterTransform16setInstanceCountEi@Qt_6 6.6.1
 _ZN19BMRepeaterTransform16updatePropertiesEi@Qt_6 6.6.1
 _ZN19BMRepeaterTransform9constructERK11QJsonObjectRK14QVersionNumber@Qt_6 6.6.1
 _ZN19BMRepeaterTransformC1ERK11QJsonObjectRK14QVersionNumberP6BMBase@Qt_6 6.6.1
 _ZN19BMRepeaterTransformC1ERKS_@Qt_6 6.6.1
 _ZN19BMRepeaterTransformC2ERK11QJsonObjectRK14QVersionNumberP6BMBase@Qt_6 6.6.1
 _ZN19BMRepeaterTransformC2ERKS_@Qt_6 6.6.1
 _ZN6BMBase11appendChildEPS_@Qt_6 6.6.1
 _ZN6BMBase11setPropertyEN9BMLiteral12PropertyTypeE8QVariant@Qt_6 6.6.1
 _ZN6BMBase12prependChildEPS_@Qt_6 6.6.1
 _ZN6BMBase14resolveTopRootEv@Qt_6 6.6.1
 _ZN6BMBase16updatePropertiesEi@Qt_6 6.6.1
 _ZN6BMBase17resolveExpressionERK11QJsonObject@Qt_6 6.6.1
 _ZN6BMBase5parseERK11QJsonObject@Qt_6 6.6.1
 _ZN6BMBase7setNameERK7QString@Qt_6 6.6.1
 _ZN6BMBase7setTypeEi@Qt_6 6.6.1
 _ZN6BMBase9findChildERK7QString@Qt_6 6.6.1
 _ZN6BMBase9setParentEPS_@Qt_6 6.6.1
 _ZN6BMBaseC1ERKS_@Qt_6 6.6.1
 _ZN6BMBaseC2ERKS_@Qt_6 6.6.1
 _ZN6BMBaseD0Ev@Qt_6 6.6.1
 _ZN6BMBaseD1Ev@Qt_6 6.6.1
 _ZN6BMBaseD2Ev@Qt_6 6.6.1
 _ZN6BMFill16updatePropertiesEi@Qt_6 6.6.1
 _ZN6BMFillC1ERK11QJsonObjectRK14QVersionNumberP6BMBase@Qt_6 6.6.1
 _ZN6BMFillC1ERKS_@Qt_6 6.6.1
 _ZN6BMFillC2ERK11QJsonObjectRK14QVersionNumberP6BMBase@Qt_6 6.6.1
 _ZN6BMFillC2ERKS_@Qt_6 6.6.1
 _ZN6BMRect11setPropertyEN9BMLiteral12PropertyTypeE8QVariant@Qt_6 6.6.1
 _ZN6BMRect16updatePropertiesEi@Qt_6 6.6.1
 _ZN6BMRectC1ERK11QJsonObjectRK14QVersionNumberP6BMBase@Qt_6 6.6.1
 _ZN6BMRectC1ERKS_@Qt_6 6.6.1
 _ZN6BMRectC2ERK11QJsonObjectRK14QVersionNumberP6BMBase@Qt_6 6.6.1
 _ZN6BMRectC2ERKS_@Qt_6 6.6.1
 _ZN7BMGFill11setGradientEv@Qt_6 6.6.1
 _ZN7BMGFill16updatePropertiesEi@Qt_6 6.6.1
 _ZN7BMGFillC1ERK11QJsonObjectRK14QVersionNumberP6BMBase@Qt_6 6.6.1
 _ZN7BMGFillC1ERKS_@Qt_6 6.6.1
 _ZN7BMGFillC2ERK11QJsonObjectRK14QVersionNumberP6BMBase@Qt_6 6.6.1
 _ZN7BMGFillC2ERKS_@Qt_6 6.6.1
 _ZN7BMGFillD0Ev@Qt_6 6.6.1
 _ZN7BMGFillD1Ev@Qt_6 6.6.1
 _ZN7BMGFillD2Ev@Qt_6 6.6.1
 _ZN7BMGroup16updatePropertiesEi@Qt_6 6.6.1
 _ZN7BMGroup9applyTrimERK10BMTrimPath@Qt_6 6.6.1
 _ZN7BMGroup9constructERK11QJsonObjectRK14QVersionNumber@Qt_6 6.6.1
 _ZN7BMGroupC1ERK11QJsonObjectRK14QVersionNumberP6BMBase@Qt_6 6.6.1
 _ZN7BMGroupC2ERK11QJsonObjectRK14QVersionNumberP6BMBase@Qt_6 6.6.1
 _ZN7BMImage16updatePropertiesEi@Qt_6 6.6.1
 _ZN7BMImage9constructERK11QJsonObjectRK14QVersionNumber@Qt_6 6.6.1
 _ZN7BMImageC1ERK11QJsonObjectRK14QVersionNumberP6BMBase@Qt_6 6.6.1
 _ZN7BMImageC1ERKS_@Qt_6 6.6.1
 _ZN7BMImageC2ERK11QJsonObjectRK14QVersionNumberP6BMBase@Qt_6 6.6.1
 _ZN7BMImageC2ERKS_@Qt_6 6.6.1
 _ZN7BMLayer12parseEffectsERK10QJsonArrayP6BMBase@Qt_6 6.6.1
 _ZN7BMLayer16updatePropertiesEi@Qt_6 6.6.1
 _ZN7BMLayer18resolveLinkedLayerEv@Qt_6 6.6.1
 _ZN7BMLayer5parseERK11QJsonObject@Qt_6 6.6.1
 _ZN7BMLayer9constructE11QJsonObjectRK14QVersionNumber@Qt_6 6.6.1
 _ZN7BMLayer9findChildERK7QString@Qt_6 6.6.1
 _ZN7BMLayerC1ERKS_@Qt_6 6.6.1
 _ZN7BMLayerC2ERKS_@Qt_6 6.6.1
 _ZN7BMLayerD0Ev@Qt_6 6.6.1
 _ZN7BMLayerD1Ev@Qt_6 6.6.1
 _ZN7BMLayerD2Ev@Qt_6 6.6.1
 _ZN7BMRound16updatePropertiesEi@Qt_6 6.6.1
 _ZN7BMRound9constructERK11QJsonObjectRK14QVersionNumber@Qt_6 6.6.1
 _ZN7BMRoundC1ERK11QJsonObjectRK14QVersionNumberP6BMBase@Qt_6 6.6.1
 _ZN7BMRoundC1ERKS_@Qt_6 6.6.1
 _ZN7BMRoundC2ERK11QJsonObjectRK14QVersionNumberP6BMBase@Qt_6 6.6.1
 _ZN7BMRoundC2ERKS_@Qt_6 6.6.1
 _ZN7BMShape9applyTrimERK10BMTrimPath@Qt_6 6.6.1
 _ZN7BMShape9constructE11QJsonObjectRK14QVersionNumberP6BMBase@Qt_6 6.6.1
 _ZN7BMShapeC1ERKS_@Qt_6 6.6.1
 _ZN7BMShapeC2ERKS_@Qt_6 6.6.1
 _ZN8BMStroke16updatePropertiesEi@Qt_6 6.6.1
 _ZN8BMStrokeC1ERK11QJsonObjectRK14QVersionNumberP6BMBase@Qt_6 6.6.1
 _ZN8BMStrokeC1ERKS_@Qt_6 6.6.1
 _ZN8BMStrokeC2ERK11QJsonObjectRK14QVersionNumberP6BMBase@Qt_6 6.6.1
 _ZN8BMStrokeC2ERKS_@Qt_6 6.6.1
 _ZN9BMEllipse16updatePropertiesEi@Qt_6 6.6.1
 _ZN9BMEllipse9constructERK11QJsonObjectRK14QVersionNumber@Qt_6 6.6.1
 _ZN9BMEllipseC1ERK11QJsonObjectRK14QVersionNumberP6BMBase@Qt_6 6.6.1
 _ZN9BMEllipseC1ERKS_@Qt_6 6.6.1
 _ZN9BMEllipseC2ERK11QJsonObjectRK14QVersionNumberP6BMBase@Qt_6 6.6.1
 _ZN9BMEllipseC2ERKS_@Qt_6 6.6.1
 _ZN9BMLiteral11qt_metacallEN11QMetaObject4CallEiPPv@Qt_6 6.6.1
 _ZN9BMLiteral11qt_metacastEPKc@Qt_6 6.6.1
 _ZN9BMLiteral16staticMetaObjectE@Qt_6 6.6.1
 _ZNK10BMRepeater5cloneEv@Qt_6 6.6.1
 _ZNK10BMRepeater6copiesEv@Qt_6 6.6.1
 _ZNK10BMRepeater6offsetEv@Qt_6 6.6.1
 _ZNK10BMRepeater6renderER14LottieRenderer@Qt_6 6.6.1
 _ZNK10BMRepeater9transformEv@Qt_6 6.6.1
 _ZNK10BMTrimPath11acceptsTrimEv@Qt_6 6.6.1
 _ZNK10BMTrimPath12simultaneousEv@Qt_6 6.6.1
 _ZNK10BMTrimPath3endEv@Qt_6 6.6.1
 _ZNK10BMTrimPath4trimERK12QPainterPath@Qt_6 6.6.1
 _ZNK10BMTrimPath5cloneEv@Qt_6 6.6.1
 _ZNK10BMTrimPath5startEv@Qt_6 6.6.1
 _ZNK10BMTrimPath6offsetEv@Qt_6 6.6.1
 _ZNK10BMTrimPath6renderER14LottieRenderer@Qt_6 6.6.1
 _ZNK12BMFillEffect5cloneEv@Qt_6 6.6.1
 _ZNK12BMFillEffect5colorEv@Qt_6 6.6.1
 _ZNK12BMFillEffect6renderER14LottieRenderer@Qt_6 6.6.1
 _ZNK12BMFillEffect7opacityEv@Qt_6 6.6.1
 _ZNK12BMImageLayer5cloneEv@Qt_6 6.6.1
 _ZNK12BMImageLayer6renderER14LottieRenderer@Qt_6 6.6.1
 _ZNK12BMShapeLayer5cloneEv@Qt_6 6.6.1
 _ZNK12BMShapeLayer6renderER14LottieRenderer@Qt_6 6.6.1
 _ZNK13BMPathTrimmer5inUseEv@Qt_6 6.6.1
 _ZNK13BMPathTrimmer6renderER14LottieRenderer@Qt_6 6.6.1
 _ZNK14LottieRenderer13trimmingStateEv@Qt_6 6.6.1
 _ZNK15BMFreeFormShape11acceptsTrimEv@Qt_6 6.6.1
 _ZNK15BMFreeFormShape5cloneEv@Qt_6 6.6.1
 _ZNK15BMFreeFormShape6renderER14LottieRenderer@Qt_6 6.6.1
 _ZNK16BMBasicTransform11anchorPointEv@Qt_6 6.6.1
 _ZNK16BMBasicTransform5cloneEv@Qt_6 6.6.1
 _ZNK16BMBasicTransform5scaleEv@Qt_6 6.6.1
 _ZNK16BMBasicTransform6renderER14LottieRenderer@Qt_6 6.6.1
 _ZNK16BMBasicTransform7opacityEv@Qt_6 6.6.1
 _ZNK16BMBasicTransform8positionEv@Qt_6 6.6.1
 _ZNK16BMBasicTransform8rotationEv@Qt_6 6.6.1
 _ZNK16BMShapeTransform10shearAngleEv@Qt_6 6.6.1
 _ZNK16BMShapeTransform4skewEv@Qt_6 6.6.1
 _ZNK16BMShapeTransform5cloneEv@Qt_6 6.6.1
 _ZNK16BMShapeTransform6renderER14LottieRenderer@Qt_6 6.6.1
 _ZNK16BMShapeTransform6shearXEv@Qt_6 6.6.1
 _ZNK16BMShapeTransform6shearYEv@Qt_6 6.6.1
 _ZNK16BMShapeTransform8skewAxisEv@Qt_6 6.6.1
 _ZNK19BMRepeaterTransform10endOpacityEv@Qt_6 6.6.1
 _ZNK19BMRepeaterTransform12startOpacityEv@Qt_6 6.6.1
 _ZNK19BMRepeaterTransform17opacityAtInstanceEi@Qt_6 6.6.1
 _ZNK19BMRepeaterTransform5cloneEv@Qt_6 6.6.1
 _ZNK19BMRepeaterTransform6renderER14LottieRenderer@Qt_6 6.6.1
 _ZNK6BMBase10definitionEv@Qt_6 6.6.1
 _ZNK6BMBase4nameEv@Qt_6 6.6.1
 _ZNK6BMBase4typeEv@Qt_6 6.6.1
 _ZNK6BMBase5cloneEv@Qt_6 6.6.1
 _ZNK6BMBase6activeEi@Qt_6 6.6.1
 _ZNK6BMBase6hiddenEv@Qt_6 6.6.1
 _ZNK6BMBase6renderER14LottieRenderer@Qt_6 6.6.1
 _ZNK6BMBase7topRootEv@Qt_6 6.6.1
 _ZNK6BMFill5cloneEv@Qt_6 6.6.1
 _ZNK6BMFill5colorEv@Qt_6 6.6.1
 _ZNK6BMFill6renderER14LottieRenderer@Qt_6 6.6.1
 _ZNK6BMFill7opacityEv@Qt_6 6.6.1
 _ZNK6BMRect11acceptsTrimEv@Qt_6 6.6.1
 _ZNK6BMRect4sizeEv@Qt_6 6.6.1
 _ZNK6BMRect5cloneEv@Qt_6 6.6.1
 _ZNK6BMRect6renderER14LottieRenderer@Qt_6 6.6.1
 _ZNK6BMRect8positionEv@Qt_6 6.6.1
 _ZNK6BMRect9roundnessEv@Qt_6 6.6.1
 _ZNK7BMGFill10startPointEv@Qt_6 6.6.1
 _ZNK7BMGFill12gradientTypeEv@Qt_6 6.6.1
 _ZNK7BMGFill14highlightAngleEv@Qt_6 6.6.1
 _ZNK7BMGFill15highlightLengthEv@Qt_6 6.6.1
 _ZNK7BMGFill5cloneEv@Qt_6 6.6.1
 _ZNK7BMGFill5valueEv@Qt_6 6.6.1
 _ZNK7BMGFill6renderER14LottieRenderer@Qt_6 6.6.1
 _ZNK7BMGFill7opacityEv@Qt_6 6.6.1
 _ZNK7BMGFill8endPointEv@Qt_6 6.6.1
 _ZNK7BMGroup11acceptsTrimEv@Qt_6 6.6.1
 _ZNK7BMGroup5cloneEv@Qt_6 6.6.1
 _ZNK7BMGroup6renderER14LottieRenderer@Qt_6 6.6.1
 _ZNK7BMImage5cloneEv@Qt_6 6.6.1
 _ZNK7BMImage6radiusEv@Qt_6 6.6.1
 _ZNK7BMImage6renderER14LottieRenderer@Qt_6 6.6.1
 _ZNK7BMImage8positionEv@Qt_6 6.6.1
 _ZNK7BMLayer11isMaskLayerEv@Qt_6 6.6.1
 _ZNK7BMLayer11linkedLayerEv@Qt_6 6.6.1
 _ZNK7BMLayer13renderEffectsER14LottieRenderer@Qt_6 6.6.1
 _ZNK7BMLayer14isClippedLayerEv@Qt_6 6.6.1
 _ZNK7BMLayer5cloneEv@Qt_6 6.6.1
 _ZNK7BMLayer6activeEi@Qt_6 6.6.1
 _ZNK7BMLayer6renderER14LottieRenderer@Qt_6 6.6.1
 _ZNK7BMLayer7layerIdEv@Qt_6 6.6.1
 _ZNK7BMLayer8clipModeEv@Qt_6 6.6.1
 _ZNK7BMLayer9transformEv@Qt_6 6.6.1
 _ZNK7BMRound11acceptsTrimEv@Qt_6 6.6.1
 _ZNK7BMRound5cloneEv@Qt_6 6.6.1
 _ZNK7BMRound6radiusEv@Qt_6 6.6.1
 _ZNK7BMRound6renderER14LottieRenderer@Qt_6 6.6.1
 _ZNK7BMRound8positionEv@Qt_6 6.6.1
 _ZNK7BMShape11acceptsTrimEv@Qt_6 6.6.1
 _ZNK7BMShape4pathEv@Qt_6 6.6.1
 _ZNK7BMShape5cloneEv@Qt_6 6.6.1
 _ZNK7BMShape9directionEv@Qt_6 6.6.1
 _ZNK8BMStroke3penEv@Qt_6 6.6.1
 _ZNK8BMStroke5cloneEv@Qt_6 6.6.1
 _ZNK8BMStroke6renderER14LottieRenderer@Qt_6 6.6.1
 _ZNK8BMStroke7opacityEv@Qt_6 6.6.1
 _ZNK8BMStroke8getColorEv@Qt_6 6.6.1
 _ZNK9BMEllipse11acceptsTrimEv@Qt_6 6.6.1
 _ZNK9BMEllipse4sizeEv@Qt_6 6.6.1
 _ZNK9BMEllipse5cloneEv@Qt_6 6.6.1
 _ZNK9BMEllipse6renderER14LottieRenderer@Qt_6 6.6.1
 _ZNK9BMEllipse8positionEv@Qt_6 6.6.1
 _ZNK9BMLiteral10metaObjectEv@Qt_6 6.6.1
 _ZTI10BMPropertyI6QSizeFE@Qt_6 6.6.1
 _ZTI10BMRepeater@Qt_6 6.6.1
 _ZTI10BMTrimPath@Qt_6 6.6.1
 _ZTI12BMFillEffect@Qt_6 6.6.1
 _ZTI12BMImageLayer@Qt_6 6.6.1
 _ZTI12BMShapeLayer@Qt_6 6.6.1
 _ZTI14LottieRenderer@Qt_6 6.6.1
 _ZTI15BMFreeFormShape@Qt_6 6.6.1
 _ZTI16BMBasicTransform@Qt_6 6.6.1
 _ZTI16BMShapeTransform@Qt_6 6.6.1
 _ZTI19BMRepeaterTransform@Qt_6 6.6.1
 _ZTI6BMBase@Qt_6 6.6.1
 _ZTI6BMFill@Qt_6 6.6.1
 _ZTI6BMRect@Qt_6 6.6.1
 _ZTI7BMGFill@Qt_6 6.6.1
 _ZTI7BMGroup@Qt_6 6.6.1
 _ZTI7BMImage@Qt_6 6.6.1
 _ZTI7BMLayer@Qt_6 6.6.1
 _ZTI7BMRound@Qt_6 6.6.1
 _ZTI7BMShape@Qt_6 6.6.1
 _ZTI8BMStroke@Qt_6 6.6.1
 _ZTI9BMEllipse@Qt_6 6.6.1
 _ZTI9BMLiteral@Qt_6 6.6.1
 _ZTS10BMPropertyI6QSizeFE@Qt_6 6.6.1
 _ZTS10BMPropertyIdE@Qt_6 6.6.1
 _ZTS10BMPropertyIiE@Qt_6 6.6.1
 _ZTS10BMRepeater@Qt_6 6.6.1
 _ZTS10BMTrimPath@Qt_6 6.6.1
 _ZTS12BMFillEffect@Qt_6 6.6.1
 _ZTS12BMImageLayer@Qt_6 6.6.1
 _ZTS12BMProperty2DI6QSizeFE@Qt_6 6.6.1
 _ZTS12BMShapeLayer@Qt_6 6.6.1
 _ZTS14LottieRenderer@Qt_6 6.6.1
 _ZTS15BMFreeFormShape@Qt_6 6.6.1
 _ZTS16BMBasicTransform@Qt_6 6.6.1
 _ZTS16BMShapeTransform@Qt_6 6.6.1
 _ZTS19BMRepeaterTransform@Qt_6 6.6.1
 _ZTS6BMBase@Qt_6 6.6.1
 _ZTS6BMFill@Qt_6 6.6.1
 _ZTS6BMRect@Qt_6 6.6.1
 _ZTS7BMGFill@Qt_6 6.6.1
 _ZTS7BMGroup@Qt_6 6.6.1
 _ZTS7BMImage@Qt_6 6.6.1
 _ZTS7BMLayer@Qt_6 6.6.1
 _ZTS7BMRound@Qt_6 6.6.1
 _ZTS7BMShape@Qt_6 6.6.1
 _ZTS8BMStroke@Qt_6 6.6.1
 _ZTS9BMEllipse@Qt_6 6.6.1
 _ZTS9BMLiteral@Qt_6 6.6.1
 _ZTV10BMRepeater@Qt_6 6.6.1
 _ZTV10BMTrimPath@Qt_6 6.6.1
 _ZTV12BMFillEffect@Qt_6 6.6.1
 _ZTV12BMImageLayer@Qt_6 6.6.1
 _ZTV12BMShapeLayer@Qt_6 6.6.1
 _ZTV14LottieRenderer@Qt_6 6.6.1
 _ZTV15BMFreeFormShape@Qt_6 6.6.1
 _ZTV16BMBasicTransform@Qt_6 6.6.1
 _ZTV16BMShapeTransform@Qt_6 6.6.1
 _ZTV19BMRepeaterTransform@Qt_6 6.6.1
 _ZTV6BMBase@Qt_6 6.6.1
 _ZTV6BMFill@Qt_6 6.6.1
 _ZTV6BMRect@Qt_6 6.6.1
 _ZTV7BMGFill@Qt_6 6.6.1
 _ZTV7BMGroup@Qt_6 6.6.1
 _ZTV7BMImage@Qt_6 6.6.1
 _ZTV7BMLayer@Qt_6 6.6.1
 _ZTV7BMRound@Qt_6 6.6.1
 _ZTV7BMShape@Qt_6 6.6.1
 _ZTV8BMStroke@Qt_6 6.6.1
 _ZTV9BMEllipse@Qt_6 6.6.1
 _ZTV9BMLiteral@Qt_6 6.6.1
